BL51 BANKED LINKER/LOCATER V6.22                                                        06/17/2024  15:36:17  PAGE 1


BL51 BANKED LINKER/LOCATER V6.22, INVOKED BY:
D:\EMBEDDEDDEVELOPMENT\KEIL_C51\C51\BIN\BL51.EXE STARTUP.obj, main.obj TO spi_test RAMSIZE (256)


MEMORY MODEL: LARGE


INPUT MODULES INCLUDED:
  STARTUP.obj (?C_STARTUP)
  main.obj (MAIN)
  D:\EMBEDDEDDEVELOPMENT\KEIL_C51\C51\LIB\C51L.LIB (?C_INIT)
  D:\EMBEDDEDDEVELOPMENT\KEIL_C51\C51\LIB\C51L.LIB (?C?CLDPTR)
  D:\EMBEDDEDDEVELOPMENT\KEIL_C51\C51\LIB\C51L.LIB (?C?CLDOPTR)
  D:\EMBEDDEDDEVELOPMENT\KEIL_C51\C51\LIB\C51L.LIB (?C?SIDIV)
  D:\EMBEDDEDDEVELOPMENT\KEIL_C51\C51\LIB\C51L.LIB (?C?ILDIX)
  D:\EMBEDDEDDEVELOPMENT\KEIL_C51\C51\LIB\C51L.LIB (?C?LMUL)
  D:\EMBEDDEDDEVELOPMENT\KEIL_C51\C51\LIB\C51L.LIB (?C?LSHL)
  D:\EMBEDDEDDEVELOPMENT\KEIL_C51\C51\LIB\C51L.LIB (?C?LLDOPTR)
  D:\EMBEDDEDDEVELOPMENT\KEIL_C51\C51\LIB\C51L.LIB (?C?LSTOPTR)
  D:\EMBEDDEDDEVELOPMENT\KEIL_C51\C51\LIB\C51L.LIB (?C?LSTXDATA)
  D:\EMBEDDEDDEVELOPMENT\KEIL_C51\C51\LIB\C51L.LIB (?C?LSTKXDATA)
  D:\EMBEDDEDDEVELOPMENT\KEIL_C51\C51\LIB\C51L.LIB (?C?LCASE)
  D:\EMBEDDEDDEVELOPMENT\KEIL_C51\C51\LIB\C51L.LIB (PRINTF)
  D:\EMBEDDEDDEVELOPMENT\KEIL_C51\C51\LIB\C51L.LIB (?C?CSTPTR)
  D:\EMBEDDEDDEVELOPMENT\KEIL_C51\C51\LIB\C51L.LIB (?C?UIDIV)
  D:\EMBEDDEDDEVELOPMENT\KEIL_C51\C51\LIB\C51L.LIB (?C?LLDIDATA)
  D:\EMBEDDEDDEVELOPMENT\KEIL_C51\C51\LIB\C51L.LIB (?C?LLDXDATA)
  D:\EMBEDDEDDEVELOPMENT\KEIL_C51\C51\LIB\C51L.LIB (?C?LLDPDATA)
  D:\EMBEDDEDDEVELOPMENT\KEIL_C51\C51\LIB\C51L.LIB (?C?LLDCODE)
  D:\EMBEDDEDDEVELOPMENT\KEIL_C51\C51\LIB\C51L.LIB (?C?LSTIDATA)
  D:\EMBEDDEDDEVELOPMENT\KEIL_C51\C51\LIB\C51L.LIB (?C?LSTPDATA)
  D:\EMBEDDEDDEVELOPMENT\KEIL_C51\C51\LIB\C51L.LIB (?C?PLDIXDATA)
  D:\EMBEDDEDDEVELOPMENT\KEIL_C51\C51\LIB\C51L.LIB (?C?PSTXDATA)
  D:\EMBEDDEDDEVELOPMENT\KEIL_C51\C51\LIB\C51L.LIB (?C?CCASE)
  D:\EMBEDDEDDEVELOPMENT\KEIL_C51\C51\LIB\C51L.LIB (PUTCHAR)


LINK MAP OF MODULE:  spi_test (?C_STARTUP)


            TYPE    BASE      LENGTH    RELOCATION   SEGMENT NAME
            -----------------------------------------------------

            * * * * * * *   D A T A   M E M O R Y   * * * * * * *
            REG     0000H     0008H     ABSOLUTE     "REG BANK 0"
            DATA    0008H     0005H     UNIT         ?DT?PRINTF?PRINTF
                    000DH     0013H                  *** GAP ***
            BIT     0020H.0   0001H.1   UNIT         ?BI?PRINTF?PRINTF
                    0021H.1   0000H.7                *** GAP ***
            IDATA   0022H     0001H     UNIT         ?STACK

            * * * * * * *  X D A T A   M E M O R Y  * * * * * * *
            XDATA   0000H     0123H     UNIT         ?XD?MAIN
            XDATA   0123H     0028H     UNIT         ?XD?PRINTF?PRINTF
            XDATA   014BH     0019H     UNIT         _XDATA_GROUP_
            XDATA   0164H     000EH     UNIT         ?XD?_DRAW_BMP?MAIN
            XDATA   0172H     0008H     UNIT         ?XD?_OLED_P6X8STR?MAIN
            XDATA   017AH     0008H     UNIT         ?XD?_OLED_P8X16STR?MAIN
BL51 BANKED LINKER/LOCATER V6.22                                                      06/17/2024  15:36:17  PAGE 2


            XDATA   0182H     0008H     UNIT         ?XD?_AD7190_WR8_SERIAL?MAIN
            XDATA   018AH     0008H     UNIT         ?XD?_AD7190_WR24_SERIAL?MAIN
            XDATA   0192H     0007H     UNIT         ?XD?_PROCESS_FRAME?MAIN
            XDATA   0199H     0006H     UNIT         ?XD?_PROCESS_COMMAND?MAIN
            XDATA   019FH     0005H     UNIT         ?XD?AD7190_RD32_SERIAL?MAIN
            XDATA   01A4H     0005H     UNIT         ?XD?AD7190_RD24_SERIAL?MAIN
            XDATA   01A9H     0003H     UNIT         ?XD?_UART_SENDSTRING?MAIN
            XDATA   01ACH     0002H     UNIT         ?XD?_OLED_P16X16CH?MAIN
            XDATA   01AEH     0002H     UNIT         ?XD?PRINTF_DATA?MAIN

            * * * * * * *   C O D E   M E M O R Y   * * * * * * *
            CODE    0000H     0003H     ABSOLUTE     
            CODE    0003H     1484H     UNIT         ?CO?MAIN
            CODE    1487H     0365H     UNIT         ?PR?PRINTF?PRINTF
            CODE    17ECH     02B8H     UNIT         ?C?LIB_CODE
            CODE    1AA4H     01C1H     UNIT         ?PR?_AD9850_WR_SERIAL?MAIN
            CODE    1C65H     011AH     UNIT         ?PR?_WEITEIC?MAIN
            CODE    1D7FH     00D5H     UNIT         ?PR?_AD7190_WR24_SERIAL?MAIN
            CODE    1E54H     00C9H     UNIT         ?PR?_DRAW_BMP?MAIN
            CODE    1F1DH     00C1H     UNIT         ?PR?_OLED_P8X16STR?MAIN
            CODE    1FDEH     009EH     UNIT         ?PR?OLED_INIT?MAIN
            CODE    207CH     0093H     UNIT         ?PR?_PROCESS_FRAME?MAIN
            CODE    210FH     008CH     UNIT         ?C_C51STARTUP
            CODE    219BH     008CH     UNIT         ?PR?_OLED_P6X8STR?MAIN
            CODE    2227H     0086H     UNIT         ?PR?_PROCESS_COMMAND?MAIN
            CODE    22ADH     006BH     UNIT         ?PR?AD7190_RD32_SERIAL?MAIN
            CODE    2318H     006BH     UNIT         ?PR?AD7190_RD24_SERIAL?MAIN
            CODE    2383H     006BH     UNIT         ?PR?PRINTF_DATA?MAIN
            CODE    23EEH     0055H     UNIT         ?PR?_AD7190_WR8_SERIAL?MAIN
            CODE    2443H     0051H     UNIT         ?PR?_OLED_P16X16CH?MAIN
            CODE    2494H     0033H     UNIT         ?PR?_UART_SENDSTRING?MAIN
            CODE    24C7H     002BH     UNIT         ?PR?_OLED_WRCMD?MAIN
            CODE    24F2H     0029H     UNIT         ?C_INITSEG
            CODE    251BH     0027H     UNIT         ?PR?_WRITE_IIC_BYTE?MAIN
            CODE    2542H     0027H     UNIT         ?PR?_OLED_FILL?MAIN
            CODE    2569H     0027H     UNIT         ?PR?PUTCHAR?PUTCHAR
            CODE    2590H     0025H     UNIT         ?PR?OLED_CLS?MAIN
            CODE    25B5H     001EH     UNIT         ?PR?_DELAY?MAIN
            CODE    25D3H     001DH     UNIT         ?PR?_OLED_WRDAT?MAIN
            CODE    25F0H     001DH     UNIT         ?PR?_OLED_DRAWPOINT?MAIN
            CODE    260DH     001CH     UNIT         ?PR?_OLED_UNDRAWPOINT?MAIN
            CODE    2629H     001AH     UNIT         ?PR?_OLED_SET_POS?MAIN
            CODE    2643H     0016H     UNIT         ?PR?UART_INIT?MAIN
            CODE    2659H     000BH     UNIT         ?PR?MAIN?MAIN
            CODE    2664H     0009H     UNIT         ?PR?IIC_START?MAIN
            CODE    266DH     0009H     UNIT         ?PR?IIC_STOP?MAIN
            CODE    2676H     0009H     UNIT         ?PR?AD7190_RESET_SERIAL?MAIN
            CODE    267FH     0008H     UNIT         ?PR?_UART_SENDBYTE?MAIN



OVERLAY MAP OF MODULE:   spi_test (?C_STARTUP)


SEGMENT                                XDATA_GROUP
  +--> CALLED SEGMENT                START    LENGTH
----------------------------------------------------
BL51 BANKED LINKER/LOCATER V6.22                                                      06/17/2024  15:36:17  PAGE 3


?C_C51STARTUP                        -----    -----
  +--> ?PR?MAIN?MAIN
  +--> ?C_INITSEG

?PR?MAIN?MAIN                        -----    -----
  +--> ?PR?_WEITEIC?MAIN

?PR?_WEITEIC?MAIN                    014BH    0009H
  +--> ?PR?_DELAY?MAIN
  +--> ?PR?_AD9850_WR_SERIAL?MAIN

?PR?_AD9850_WR_SERIAL?MAIN           0154H    0010H



SYMBOL TABLE OF MODULE:  spi_test (?C_STARTUP)

  VALUE           TYPE          NAME
  ----------------------------------

  -------         MODULE        ?C_STARTUP
  C:210FH         SEGMENT       ?C_C51STARTUP
  I:0022H         SEGMENT       ?STACK
  C:0000H         PUBLIC        ?C_STARTUP
  D:00E0H         SYMBOL        ACC
  D:00F0H         SYMBOL        B
  D:0083H         SYMBOL        DPH
  D:0082H         SYMBOL        DPL
  N:0000H         SYMBOL        IBPSTACK
  N:0100H         SYMBOL        IBPSTACKTOP
  N:0080H         SYMBOL        IDATALEN
  C:2112H         SYMBOL        IDATALOOP
  N:0000H         SYMBOL        PBPSTACK
  N:0100H         SYMBOL        PBPSTACKTOP
  N:0000H         SYMBOL        PDATALEN
  N:0000H         SYMBOL        PDATASTART
  N:0000H         SYMBOL        PPAGE
  N:0000H         SYMBOL        PPAGEENABLE
  D:00A0H         SYMBOL        PPAGE_SFR
  D:0081H         SYMBOL        SP
  C:210FH         SYMBOL        STARTUP1
  N:0000H         SYMBOL        XBPSTACK
  N:0000H         SYMBOL        XBPSTACKTOP
  N:0000H         SYMBOL        XDATALEN
  N:0000H         SYMBOL        XDATASTART
  C:0000H         LINE#         126
  C:210FH         LINE#         133
  C:2111H         LINE#         134
  C:2112H         LINE#         135
  C:2113H         LINE#         136
  C:2115H         LINE#         185
  C:2118H         LINE#         196
  -------         ENDMOD        ?C_STARTUP

  -------         MODULE        MAIN
  C:0000H         SYMBOL        _ICE_DUMMY_
  C:23EEH         PUBLIC        _ad7190_wr8_serial
BL51 BANKED LINKER/LOCATER V6.22                                                      06/17/2024  15:36:17  PAGE 4


  D:0080H         PUBLIC        P0
  D:0090H         PUBLIC        P1
  X:0000H         PUBLIC        Uart1_Rx_Cnt
  D:00A0H         PUBLIC        P2
  D:00B0H         PUBLIC        P3
  C:2676H         PUBLIC        ad7190_reset_serial
  B:00A8H.7       PUBLIC        EA
  X:0001H         PUBLIC        aRxBuffer
  B:0080H.0       PUBLIC        ad7190_w_clk
  C:006FH         PUBLIC        F16x16
  D:00A8H         PUBLIC        IE
  C:2542H         PUBLIC        _OLED_Fill
  B:00B0H.0       PUBLIC        ad9850_w_clk
  C:0C87H         PUBLIC        BMP1
  C:25B5H         PUBLIC        _delay
  C:1087H         PUBLIC        BMP2
  C:2383H         PUBLIC        printf_data
  B:0080H.1       PUBLIC        ad7190_fq_up
  B:00A8H.4       PUBLIC        ES
  D:00B8H         PUBLIC        IP
  C:22ADH         PUBLIC        ad7190_rd32_serial
  C:2318H         PUBLIC        ad7190_rd24_serial
  B:00B0H.1       PUBLIC        ad9850_fq_up
  C:1FDEH         PUBLIC        OLED_Init
  B:0098H.1       PUBLIC        TI
  C:25F0H         PUBLIC        _OLED_DrawPoint
  C:2494H         PUBLIC        _UART_SendString
  C:2659H         PUBLIC        main
  X:0002H         PUBLIC        RxBuffer
  C:1F1DH         PUBLIC        _OLED_P8x16Str
  C:046FH         PUBLIC        F6x8
  C:1C65H         PUBLIC        _weiteIC
  C:1D7FH         PUBLIC        _ad7190_wr24_serial
  D:0099H         PUBLIC        SBUF
  C:2643H         PUBLIC        UART_Init
  D:0098H         PUBLIC        SCON
  D:0089H         PUBLIC        TMOD
  D:0088H         PUBLIC        TCON
  B:0080H.3       PUBLIC        ad7190_bit_data
  B:0080H.2       PUBLIC        ad7190_rest
  B:00B0H.3       PUBLIC        ad9850_bit_data
  C:2522H         PUBLIC        _Write_IIC_Byte
  B:00B0H.2       PUBLIC        ad9850_rest
  C:0697H         PUBLIC        F8X16
  C:267FH         PUBLIC        _UART_SendByte
  C:262FH         PUBLIC        _OLED_Set_Pos
  C:2664H         PUBLIC        IIC_Start
  C:2227H         PUBLIC        _process_command
  C:2443H         PUBLIC        _OLED_P16x16Ch
  C:1AA4H         PUBLIC        _ad9850_wr_serial
  D:008DH         PUBLIC        TH1
  C:1E54H         PUBLIC        _Draw_BMP
  D:008BH         PUBLIC        TL1
  B:0088H.6       PUBLIC        TR1
  B:00A0H.5       PUBLIC        SDA
  C:266DH         PUBLIC        IIC_Stop
  B:00A0H.4       PUBLIC        SCL
BL51 BANKED LINKER/LOCATER V6.22                                                      06/17/2024  15:36:17  PAGE 5


  X:0102H         PUBLIC        received_byte
  X:0103H         PUBLIC        datatem
  C:24E2H         PUBLIC        _OLED_WrCmd
  D:00C8H         PUBLIC        T2CON
  C:2590H         PUBLIC        OLED_CLS
  C:260DH         PUBLIC        _OLED_UnDrawPoint
  C:25E0H         PUBLIC        _OLED_WrDat
  C:207CH         PUBLIC        _process_frame
  B:0080H.4       PUBLIC        ad7190_bit_out
  C:219BH         PUBLIC        _OLED_P6x8Str
  D:00D0H         PUBLIC        PSW
  -------         PROC          _DELAY
  D:0006H         SYMBOL        z
  -------         DO            
  D:0006H         SYMBOL        x
  D:0004H         SYMBOL        y
  -------         ENDDO         
  C:25B5H         LINE#         483
  C:25B5H         LINE#         484
  C:25B5H         LINE#         486
  C:25BEH         LINE#         487
  C:25D2H         LINE#         488
  -------         ENDPROC       _DELAY
  -------         PROC          IIC_START
  C:2664H         LINE#         493
  C:2664H         LINE#         494
  C:2664H         LINE#         495
  C:2666H         LINE#         496
  C:2668H         LINE#         497
  C:266AH         LINE#         498
  C:266CH         LINE#         499
  -------         ENDPROC       IIC_START
  -------         PROC          IIC_STOP
  C:266DH         LINE#         504
  C:266DH         LINE#         505
  C:266DH         LINE#         506
  C:266FH         LINE#         507
  C:2671H         LINE#         508
  C:2673H         LINE#         509
  C:2675H         LINE#         510
  -------         ENDPROC       IIC_STOP
  -------         PROC          L?0171
  -------         ENDPROC       L?0171
  -------         PROC          _WRITE_IIC_BYTE
  D:0007H         SYMBOL        IIC_Byte
  -------         DO            
  D:0006H         SYMBOL        i
  -------         ENDDO         
  C:2522H         LINE#         515
  C:2522H         LINE#         516
  C:2522H         LINE#         518
  C:2524H         LINE#         519
  C:2524H         LINE#         520
  C:2528H         LINE#         521
  C:252CH         LINE#         523
  C:252EH         LINE#         524
  C:2530H         LINE#         525
BL51 BANKED LINKER/LOCATER V6.22                                                      06/17/2024  15:36:17  PAGE 6


  C:2532H         LINE#         526
  C:2536H         LINE#         527
  C:253BH         LINE#         528
  C:253DH         LINE#         529
  C:253FH         LINE#         530
  C:2541H         LINE#         531
  -------         ENDPROC       _WRITE_IIC_BYTE
  C:25DBH         SYMBOL        L?0169
  -------         PROC          L?0168
  -------         ENDPROC       L?0168
  C:25DBH         SYMBOL        L?0169
  -------         PROC          _OLED_WRDAT
  D:0005H         SYMBOL        IIC_Data
  C:25E0H         LINE#         534
  C:25E0H         LINE#         535
  C:25E0H         LINE#         536
  C:25E0H         LINE#         537
  C:25E3H         LINE#         538
  C:25E8H         LINE#         539
  C:25EDH         LINE#         540
  -------         ENDPROC       _OLED_WRDAT
  C:24DAH         SYMBOL        L?0167
  -------         PROC          L?0166
  -------         ENDPROC       L?0166
  C:24DAH         SYMBOL        L?0167
  -------         PROC          _OLED_WRCMD
  D:0005H         SYMBOL        IIC_Command
  C:24E2H         LINE#         543
  C:24E2H         LINE#         544
  C:24E2H         LINE#         545
  C:24E2H         LINE#         546
  C:24E5H         LINE#         547
  C:24EAH         LINE#         548
  C:24EFH         LINE#         549
  -------         ENDPROC       _OLED_WRCMD
  -------         PROC          L?0170
  -------         ENDPROC       L?0170
  -------         PROC          _OLED_SET_POS
  D:0004H         SYMBOL        x
  D:0005H         SYMBOL        y
  C:262FH         LINE#         552
  C:2631H         LINE#         553
  C:2631H         LINE#         554
  C:2638H         LINE#         555
  C:263CH         LINE#         556
  -------         ENDPROC       _OLED_SET_POS
  -------         PROC          _OLED_DRAWPOINT
  D:0003H         SYMBOL        x
  D:0004H         SYMBOL        y
  -------         DO            
  D:0006H         SYMBOL        y1
  -------         ENDDO         
  C:25F0H         LINE#         560
  C:25F0H         LINE#         561
  C:25F0H         LINE#         562
  C:25F0H         LINE#         563
  C:25F0H         LINE#         564
BL51 BANKED LINKER/LOCATER V6.22                                                      06/17/2024  15:36:17  PAGE 7


  C:25F3H         LINE#         565
  C:25FAH         LINE#         566
  -------         ENDPROC       _OLED_DRAWPOINT
  -------         PROC          _OLED_UNDRAWPOINT
  D:0003H         SYMBOL        x
  D:0004H         SYMBOL        y
  -------         DO            
  D:0006H         SYMBOL        y1
  -------         ENDDO         
  C:260DH         LINE#         570
  C:260DH         LINE#         571
  C:260DH         LINE#         572
  C:260DH         LINE#         573
  C:260DH         LINE#         574
  C:2610H         LINE#         575
  C:2617H         LINE#         576
  -------         ENDPROC       _OLED_UNDRAWPOINT
  -------         PROC          _OLED_FILL
  D:0004H         SYMBOL        bmp_dat
  -------         DO            
  D:0003H         SYMBOL        y
  D:0002H         SYMBOL        x
  -------         ENDDO         
  C:2542H         LINE#         582
  C:2544H         LINE#         583
  C:2544H         LINE#         585
  C:2546H         LINE#         586
  C:2546H         LINE#         587
  C:254DH         LINE#         588
  C:2552H         LINE#         589
  C:2557H         LINE#         590
  C:2559H         LINE#         591
  C:2563H         LINE#         592
  C:2568H         LINE#         593
  -------         ENDPROC       _OLED_FILL
  -------         PROC          OLED_CLS
  -------         DO            
  D:0004H         SYMBOL        y
  D:0003H         SYMBOL        x
  -------         ENDDO         
  C:2590H         LINE#         595
  C:2590H         LINE#         596
  C:2590H         LINE#         598
  C:2592H         LINE#         599
  C:2592H         LINE#         600
  C:2599H         LINE#         601
  C:259EH         LINE#         602
  C:25A3H         LINE#         603
  C:25A5H         LINE#         604
  C:25AFH         LINE#         605
  C:25B4H         LINE#         606
  -------         ENDPROC       OLED_CLS
  -------         PROC          OLED_INIT
  C:1FDEH         LINE#         608
  C:1FDEH         LINE#         609
  C:1FDEH         LINE#         610
  C:1FE5H         LINE#         611
BL51 BANKED LINKER/LOCATER V6.22                                                      06/17/2024  15:36:17  PAGE 8


  C:1FEAH         LINE#         612
  C:1FEFH         LINE#         613
  C:1FF4H         LINE#         614
  C:1FF9H         LINE#         615
  C:1FFEH         LINE#         616
  C:2003H         LINE#         617
  C:2008H         LINE#         618
  C:200DH         LINE#         619
  C:2012H         LINE#         620
  C:2017H         LINE#         621
  C:201CH         LINE#         622
  C:2021H         LINE#         623
  C:2026H         LINE#         624
  C:202BH         LINE#         625
  C:2030H         LINE#         626
  C:2035H         LINE#         627
  C:203AH         LINE#         628
  C:203FH         LINE#         629
  C:2044H         LINE#         630
  C:2049H         LINE#         631
  C:204EH         LINE#         632
  C:2053H         LINE#         633
  C:2058H         LINE#         634
  C:205DH         LINE#         635
  C:2062H         LINE#         636
  C:2067H         LINE#         637
  C:206CH         LINE#         638
  C:2071H         LINE#         639
  C:2076H         LINE#         640
  -------         ENDPROC       OLED_INIT
  -------         PROC          _OLED_P6X8STR
  X:0172H         SYMBOL        x
  X:0173H         SYMBOL        y
  X:0175H         SYMBOL        ch
  -------         DO            
  X:0178H         SYMBOL        c
  D:0004H         SYMBOL        i
  X:0179H         SYMBOL        j
  -------         ENDDO         
  C:219BH         LINE#         643
  C:21AFH         LINE#         644
  C:21AFH         LINE#         645
  C:21B5H         LINE#         646
  C:21CEH         LINE#         647
  C:21CEH         LINE#         648
  C:21D4H         LINE#         649
  C:21EDH         LINE#         650
  C:21F3H         LINE#         651
  C:21F5H         LINE#         652
  C:2217H         LINE#         653
  C:221EH         LINE#         654
  C:2224H         LINE#         655
  C:2226H         LINE#         656
  -------         ENDPROC       _OLED_P6X8STR
  -------         PROC          _OLED_P8X16STR
  X:017AH         SYMBOL        x
  X:017BH         SYMBOL        y
BL51 BANKED LINKER/LOCATER V6.22                                                      06/17/2024  15:36:17  PAGE 9


  X:017DH         SYMBOL        ch
  -------         DO            
  X:0180H         SYMBOL        c
  D:0004H         SYMBOL        i
  X:0181H         SYMBOL        j
  -------         ENDDO         
  C:1F1DH         LINE#         658
  C:1F31H         LINE#         659
  C:1F31H         LINE#         660
  C:1F37H         LINE#         661
  C:1F53H         LINE#         662
  C:1F53H         LINE#         663
  C:1F59H         LINE#         664
  C:1F72H         LINE#         665
  C:1F78H         LINE#         666
  C:1F7AH         LINE#         667
  C:1F9CH         LINE#         668
  C:1FA9H         LINE#         669
  C:1FABH         LINE#         670
  C:1FCDH         LINE#         671
  C:1FD4H         LINE#         672
  C:1FDAH         LINE#         673
  C:1FDDH         LINE#         674
  -------         ENDPROC       _OLED_P8X16STR
  -------         PROC          _OLED_P16X16CH
  D:0001H         SYMBOL        x
  X:01ACH         SYMBOL        y
  D:0002H         SYMBOL        N
  -------         DO            
  D:0004H         SYMBOL        wm
  D:0002H         SYMBOL        adder
  -------         ENDDO         
  C:2443H         LINE#         676
  C:244DH         LINE#         677
  C:244DH         LINE#         678
  C:244FH         LINE#         679
  C:245EH         LINE#         680
  C:2469H         LINE#         681
  C:246BH         LINE#         682
  C:246BH         LINE#         683
  C:246EH         LINE#         684
  C:2473H         LINE#         685
  C:2478H         LINE#         686
  C:2484H         LINE#         687
  C:2486H         LINE#         688
  C:2486H         LINE#         689
  C:2489H         LINE#         690
  C:248EH         LINE#         691
  C:2493H         LINE#         692
  -------         ENDPROC       _OLED_P16X16CH
  -------         PROC          _DRAW_BMP
  X:0164H         SYMBOL        x0
  X:0165H         SYMBOL        y0
  X:0167H         SYMBOL        x1
  X:0169H         SYMBOL        y1
  X:016BH         SYMBOL        BMP
  -------         DO            
BL51 BANKED LINKER/LOCATER V6.22                                                      06/17/2024  15:36:17  PAGE 10


  X:016EH         SYMBOL        j
  X:0170H         SYMBOL        x
  X:0171H         SYMBOL        y
  -------         ENDDO         
  C:1E54H         LINE#         694
  C:1E65H         LINE#         695
  C:1E65H         LINE#         696
  C:1E6CH         LINE#         699
  C:1E93H         LINE#         700
  C:1EA8H         LINE#         701
  C:1EC9H         LINE#         702
  C:1EC9H         LINE#         703
  C:1ED1H         LINE#         704
  C:1EEDH         LINE#         705
  C:1EEDH         LINE#         706
  C:1F0CH         LINE#         707
  C:1F14H         LINE#         708
  C:1F1CH         LINE#         709
  -------         ENDPROC       _DRAW_BMP
  -------         PROC          AD7190_RESET_SERIAL
  C:2676H         LINE#         21
  C:2676H         LINE#         22
  C:2676H         LINE#         23
  C:2678H         LINE#         24
  C:267AH         LINE#         25
  C:267CH         LINE#         26
  C:267EH         LINE#         27
  -------         ENDPROC       AD7190_RESET_SERIAL
  -------         PROC          _AD7190_WR8_SERIAL
  D:0004H         SYMBOL        dress
  -------         DO            
  D:0003H         SYMBOL        i
  X:0182H         SYMBOL        w
  X:0186H         SYMBOL        y
  -------         ENDDO         
  C:23EEH         LINE#         30
  C:23EEH         LINE#         31
  C:23EEH         LINE#         34
  C:23F0H         LINE#         35
  C:23F2H         LINE#         38
  C:23F8H         LINE#         40
  C:2419H         LINE#         41
  C:241BH         LINE#         42
  C:241DH         LINE#         43
  C:241DH         LINE#         44
  C:2439H         LINE#         45
  C:243BH         LINE#         46
  C:243DH         LINE#         47
  C:2442H         LINE#         82
  -------         ENDPROC       _AD7190_WR8_SERIAL
  -------         PROC          _AD7190_WR24_SERIAL
  D:0004H         SYMBOL        dress
  -------         DO            
  D:0003H         SYMBOL        i
  X:018AH         SYMBOL        w
  X:018EH         SYMBOL        y
  -------         ENDDO         
BL51 BANKED LINKER/LOCATER V6.22                                                      06/17/2024  15:36:17  PAGE 11


  C:1D7FH         LINE#         89
  C:1D7FH         LINE#         90
  C:1D7FH         LINE#         93
  C:1D81H         LINE#         94
  C:1D83H         LINE#         97
  C:1D89H         LINE#         99
  C:1DAAH         LINE#         100
  C:1DACH         LINE#         101
  C:1DAEH         LINE#         102
  C:1DAEH         LINE#         103
  C:1DCAH         LINE#         104
  C:1DCCH         LINE#         105
  C:1DCEH         LINE#         106
  C:1DD3H         LINE#         108
  C:1DECH         LINE#         109
  C:1DEEH         LINE#         110
  C:1DEEH         LINE#         111
  C:1E0AH         LINE#         112
  C:1E0CH         LINE#         113
  C:1E0EH         LINE#         114
  C:1E13H         LINE#         116
  C:1E2CH         LINE#         117
  C:1E2EH         LINE#         118
  C:1E2EH         LINE#         119
  C:1E4AH         LINE#         120
  C:1E4CH         LINE#         121
  C:1E4EH         LINE#         122
  C:1E53H         LINE#         123
  -------         ENDPROC       _AD7190_WR24_SERIAL
  -------         PROC          AD7190_RD32_SERIAL
  -------         DO            
  X:019FH         SYMBOL        i
  X:01A0H         SYMBOL        rddata
  -------         ENDDO         
  C:22ADH         LINE#         128
  C:22ADH         LINE#         129
  C:22ADH         LINE#         132
  C:22AFH         LINE#         133
  C:22B9H         LINE#         134
  C:22BEH         LINE#         135
  C:22BEH         LINE#         136
  C:22C0H         LINE#         137
  C:22C2H         LINE#         138
  C:22FFH         LINE#         139
  C:2309H         LINE#         140
  C:2317H         LINE#         141
  -------         ENDPROC       AD7190_RD32_SERIAL
  -------         PROC          AD7190_RD24_SERIAL
  -------         DO            
  X:01A4H         SYMBOL        i
  X:01A5H         SYMBOL        rddata
  -------         ENDDO         
  C:2318H         LINE#         143
  C:2318H         LINE#         144
  C:2318H         LINE#         147
  C:231AH         LINE#         148
  C:2324H         LINE#         149
BL51 BANKED LINKER/LOCATER V6.22                                                      06/17/2024  15:36:17  PAGE 12


  C:2329H         LINE#         150
  C:2329H         LINE#         151
  C:232BH         LINE#         152
  C:232DH         LINE#         153
  C:236AH         LINE#         154
  C:2374H         LINE#         156
  C:2382H         LINE#         157
  -------         ENDPROC       AD7190_RD24_SERIAL
  -------         PROC          _AD9850_WR_SERIAL
  X:0154H         SYMBOL        dress
  X:0158H         SYMBOL        data1
  -------         DO            
  D:0003H         SYMBOL        i
  X:015CH         SYMBOL        w
  X:0160H         SYMBOL        y
  -------         ENDDO         
  C:1AA4H         LINE#         162
  C:1AAAH         LINE#         163
  C:1AAAH         LINE#         167
  C:1ABEH         LINE#         169
  C:1AC0H         LINE#         170
  C:1AC2H         LINE#         173
  C:1AD6H         LINE#         174
  C:1AD8H         LINE#         175
  C:1AD8H         LINE#         176
  C:1ADAH         LINE#         177
  C:1ADCH         LINE#         178
  C:1ADEH         LINE#         179
  C:1AE3H         LINE#         180
  C:1AE5H         LINE#         181
  C:1AE7H         LINE#         182
  C:1AE9H         LINE#         183
  C:1AEBH         LINE#         184
  C:1AEDH         LINE#         185
  C:1AEFH         LINE#         186
  C:1AF1H         LINE#         187
  C:1AF1H         LINE#         188
  C:1B0DH         LINE#         189
  C:1B0FH         LINE#         190
  C:1B11H         LINE#         191
  C:1B16H         LINE#         192
  C:1B25H         LINE#         193
  C:1B27H         LINE#         194
  C:1B29H         LINE#         195
  C:1B2BH         LINE#         196
  C:1B2DH         LINE#         197
  C:1B2FH         LINE#         198
  C:1B31H         LINE#         199
  C:1B33H         LINE#         201
  C:1B47H         LINE#         202
  C:1B49H         LINE#         203
  C:1B49H         LINE#         204
  C:1B4BH         LINE#         205
  C:1B4DH         LINE#         206
  C:1B4FH         LINE#         207
  C:1B54H         LINE#         213
  C:1B75H         LINE#         214
BL51 BANKED LINKER/LOCATER V6.22                                                      06/17/2024  15:36:17  PAGE 13


  C:1B77H         LINE#         215
  C:1B77H         LINE#         216
  C:1B91H         LINE#         217
  C:1B93H         LINE#         218
  C:1B95H         LINE#         219
  C:1B9AH         LINE#         221
  C:1BB3H         LINE#         222
  C:1BB5H         LINE#         223
  C:1BB5H         LINE#         224
  C:1BCFH         LINE#         225
  C:1BD1H         LINE#         226
  C:1BD3H         LINE#         227
  C:1BD8H         LINE#         229
  C:1BF1H         LINE#         230
  C:1BF3H         LINE#         231
  C:1BF3H         LINE#         232
  C:1C0DH         LINE#         233
  C:1C0FH         LINE#         234
  C:1C11H         LINE#         235
  C:1C16H         LINE#         237
  C:1C2FH         LINE#         238
  C:1C31H         LINE#         239
  C:1C31H         LINE#         240
  C:1C4BH         LINE#         241
  C:1C4DH         LINE#         242
  C:1C4FH         LINE#         243
  C:1C54H         LINE#         245
  C:1C56H         LINE#         246
  C:1C58H         LINE#         247
  C:1C5AH         LINE#         248
  C:1C5CH         LINE#         249
  C:1C5EH         LINE#         250
  C:1C60H         LINE#         251
  C:1C62H         LINE#         252
  C:1C64H         LINE#         254
  -------         ENDPROC       _AD9850_WR_SERIAL
  -------         PROC          _WEITEIC
  X:014BH         SYMBOL        datatem
  -------         DO            
  X:014EH         SYMBOL        w
  X:0152H         SYMBOL        i
  -------         ENDDO         
  C:1C65H         LINE#         32
  C:1C70H         LINE#         34
  C:1C77H         LINE#         35
  C:1C79H         LINE#         36
  C:1C7BH         LINE#         37
  C:1C81H         LINE#         38
  C:1C83H         LINE#         39
  C:1C85H         LINE#         41
  C:1C9EH         LINE#         42
  C:1CDEH         LINE#         43
  C:1CEEH         LINE#         47
  C:1CF8H         LINE#         48
  C:1D11H         LINE#         49
  C:1D11H         LINE#         50
  C:1D2FH         LINE#         51
BL51 BANKED LINKER/LOCATER V6.22                                                      06/17/2024  15:36:17  PAGE 14


  C:1D31H         LINE#         52
  C:1D33H         LINE#         53
  C:1D43H         LINE#         55
  C:1D45H         LINE#         56
  C:1D47H         LINE#         57
  C:1D49H         LINE#         59
  C:1D4BH         LINE#         60
  C:1D4DH         LINE#         61
  C:1D4FH         LINE#         63
  C:1D51H         LINE#         64
  C:1D53H         LINE#         65
  C:1D55H         LINE#         66
  C:1D57H         LINE#         67
  C:1D59H         LINE#         69
  C:1D60H         LINE#         70
  C:1D60H         LINE#         71
  C:1D62H         LINE#         72
  C:1D64H         LINE#         73
  C:1D7EH         LINE#         74
  -------         ENDPROC       _WEITEIC
  -------         PROC          UART_INIT
  C:2643H         LINE#         77
  C:2643H         LINE#         78
  C:2646H         LINE#         79
  C:2649H         LINE#         80
  C:264CH         LINE#         81
  C:264FH         LINE#         82
  C:2652H         LINE#         83
  C:2654H         LINE#         84
  C:2656H         LINE#         85
  C:2658H         LINE#         86
  -------         ENDPROC       UART_INIT
  -------         PROC          _UART_SENDBYTE
  D:0007H         SYMBOL        byte
  C:267FH         LINE#         87
  C:267FH         LINE#         88
  C:2681H         LINE#         89
  C:2684H         LINE#         90
  C:2686H         LINE#         91
  -------         ENDPROC       _UART_SENDBYTE
  -------         PROC          _UART_SENDSTRING
  X:01A9H         SYMBOL        str
  C:2494H         LINE#         93
  C:249FH         LINE#         94
  C:24AFH         LINE#         95
  C:24C4H         LINE#         96
  C:24C6H         LINE#         97
  -------         ENDPROC       _UART_SENDSTRING
  -------         PROC          _PROCESS_FRAME
  D:0001H         SYMBOL        frame
  X:0195H         SYMBOL        datatem
  -------         DO            
  X:0198H         SYMBOL        reg
  D:0004H         SYMBOL        datatemp
  -------         ENDDO         
  C:207CH         LINE#         102
  C:207CH         LINE#         103
BL51 BANKED LINKER/LOCATER V6.22                                                      06/17/2024  15:36:17  PAGE 15


  C:2083H         LINE#         104
  C:20C6H         LINE#         105
  C:20DFH         LINE#         106
  -------         ENDPROC       _PROCESS_FRAME
  -------         PROC          PRINTF_DATA
  -------         DO            
  X:01AEH         SYMBOL        i
  -------         ENDDO         
  C:2383H         LINE#         112
  C:2383H         LINE#         113
  C:238AH         LINE#         114
  C:238AH         LINE#         115
  C:23C6H         LINE#         116
  C:23E5H         LINE#         117
  -------         ENDPROC       PRINTF_DATA
  -------         PROC          _PROCESS_COMMAND
  D:0001H         SYMBOL        frame
  X:019CH         SYMBOL        datatem
  -------         DO            
  D:0004H         SYMBOL        datatemp
  -------         ENDDO         
  C:2227H         LINE#         122
  C:2227H         LINE#         123
  C:226AH         LINE#         124
  C:227DH         LINE#         125
  C:227DH         LINE#         126
  C:228BH         LINE#         127
  C:228BH         LINE#         128
  C:228BH         LINE#         129
  C:228EH         LINE#         130
  C:228EH         LINE#         131
  C:228EH         LINE#         132
  C:22ACH         LINE#         133
  C:22ACH         LINE#         134
  C:22ACH         LINE#         135
  -------         ENDPROC       _PROCESS_COMMAND
  -------         PROC          MAIN
  C:2659H         LINE#         142
  C:2659H         LINE#         143
  C:2659H         LINE#         145
  C:2659H         LINE#         146
  C:2662H         LINE#         147
  -------         ENDPROC       MAIN
  -------         ENDMOD        MAIN

  -------         MODULE        ?C?CLDPTR
  C:17ECH         PUBLIC        ?C?CLDPTR
  -------         ENDMOD        ?C?CLDPTR

  -------         MODULE        ?C?CLDOPTR
  C:1805H         PUBLIC        ?C?CLDOPTR
  -------         ENDMOD        ?C?CLDOPTR

  -------         MODULE        ?C?SIDIV
  C:1832H         PUBLIC        ?C?SIDIV
  -------         ENDMOD        ?C?SIDIV

BL51 BANKED LINKER/LOCATER V6.22                                                      06/17/2024  15:36:17  PAGE 16


  -------         MODULE        ?C?ILDIX
  C:1868H         PUBLIC        ?C?ILDIX
  -------         ENDMOD        ?C?ILDIX

  -------         MODULE        ?C?LMUL
  C:187EH         PUBLIC        ?C?LMUL
  -------         ENDMOD        ?C?LMUL

  -------         MODULE        ?C?LSHL
  C:18CDH         PUBLIC        ?C?LSHL
  -------         ENDMOD        ?C?LSHL

  -------         MODULE        ?C?LLDOPTR
  C:18E0H         PUBLIC        ?C?LLDOPTR
  -------         ENDMOD        ?C?LLDOPTR

  -------         MODULE        ?C?LSTOPTR
  C:1910H         PUBLIC        ?C?LSTOPTR
  -------         ENDMOD        ?C?LSTOPTR

  -------         MODULE        ?C?LSTXDATA
  C:1934H         PUBLIC        ?C?LSTXDATA
  -------         ENDMOD        ?C?LSTXDATA

  -------         MODULE        ?C?LSTKXDATA
  C:1940H         PUBLIC        ?C?LSTKXDATA
  -------         ENDMOD        ?C?LSTKXDATA

  -------         MODULE        ?C?LCASE
  C:1971H         PUBLIC        ?C?LCASE
  -------         ENDMOD        ?C?LCASE

  -------         MODULE        PRINTF
  X:0123H         PUBLIC        ?_PRINTF517?BYTE
  X:0123H         PUBLIC        ?_PRINTF?BYTE
  X:0123H         PUBLIC        ?_SPRINTF517?BYTE
  X:0123H         PUBLIC        ?_SPRINTF?BYTE
  C:14F2H         PUBLIC        _PRINTF
  C:14F2H         PUBLIC        _PRINTF517
  C:14ECH         PUBLIC        _SPRINTF
  C:14ECH         PUBLIC        _SPRINTF517
  -------         ENDMOD        PRINTF

  -------         MODULE        ?C?CSTPTR
  C:19ABH         PUBLIC        ?C?CSTPTR
  -------         ENDMOD        ?C?CSTPTR

  -------         MODULE        ?C?UIDIV
  C:19BDH         PUBLIC        ?C?UIDIV
  -------         ENDMOD        ?C?UIDIV

  -------         MODULE        ?C?LLDIDATA
  C:1A12H         PUBLIC        ?C?LLDIDATA
  -------         ENDMOD        ?C?LLDIDATA

  -------         MODULE        ?C?LLDXDATA
  C:1A1EH         PUBLIC        ?C?LLDXDATA
BL51 BANKED LINKER/LOCATER V6.22                                                      06/17/2024  15:36:17  PAGE 17


  -------         ENDMOD        ?C?LLDXDATA

  -------         MODULE        ?C?LLDPDATA
  C:1A2AH         PUBLIC        ?C?LLDPDATA
  -------         ENDMOD        ?C?LLDPDATA

  -------         MODULE        ?C?LLDCODE
  C:1A36H         PUBLIC        ?C?LLDCODE
  -------         ENDMOD        ?C?LLDCODE

  -------         MODULE        ?C?LSTIDATA
  C:1A46H         PUBLIC        ?C?LSTIDATA
  -------         ENDMOD        ?C?LSTIDATA

  -------         MODULE        ?C?LSTPDATA
  C:1A52H         PUBLIC        ?C?LSTPDATA
  -------         ENDMOD        ?C?LSTPDATA

  -------         MODULE        ?C?PLDIXDATA
  C:1A5EH         PUBLIC        ?C?PLDIXDATA
  -------         ENDMOD        ?C?PLDIXDATA

  -------         MODULE        ?C?PSTXDATA
  C:1A75H         PUBLIC        ?C?PSTXDATA
  -------         ENDMOD        ?C?PSTXDATA

  -------         MODULE        ?C?CCASE
  C:1A7EH         PUBLIC        ?C?CCASE
  -------         ENDMOD        ?C?CCASE

  -------         MODULE        PUTCHAR
  C:2569H         PUBLIC        _PUTCHAR
  -------         ENDMOD        PUTCHAR

*** WARNING L16: UNCALLED SEGMENT, IGNORED FOR OVERLAY PROCESS
    SEGMENT: ?PR?_OLED_DRAWPOINT?MAIN

*** WARNING L16: UNCALLED SEGMENT, IGNORED FOR OVERLAY PROCESS
    SEGMENT: ?PR?_OLED_UNDRAWPOINT?MAIN

*** WARNING L16: UNCALLED SEGMENT, IGNORED FOR OVERLAY PROCESS
    SEGMENT: ?PR?OLED_CLS?MAIN

*** WARNING L16: UNCALLED SEGMENT, IGNORED FOR OVERLAY PROCESS
    SEGMENT: ?PR?OLED_INIT?MAIN

*** WARNING L16: UNCALLED SEGMENT, IGNORED FOR OVERLAY PROCESS
    SEGMENT: ?PR?_OLED_P6X8STR?MAIN

*** WARNING L16: UNCALLED SEGMENT, IGNORED FOR OVERLAY PROCESS
    SEGMENT: ?PR?_OLED_P8X16STR?MAIN

*** WARNING L16: UNCALLED SEGMENT, IGNORED FOR OVERLAY PROCESS
    SEGMENT: ?PR?_OLED_P16X16CH?MAIN

*** WARNING L16: UNCALLED SEGMENT, IGNORED FOR OVERLAY PROCESS
    SEGMENT: ?PR?_DRAW_BMP?MAIN
BL51 BANKED LINKER/LOCATER V6.22                                                      06/17/2024  15:36:17  PAGE 18



*** WARNING L16: UNCALLED SEGMENT, IGNORED FOR OVERLAY PROCESS
    SEGMENT: ?PR?AD7190_RESET_SERIAL?MAIN

*** WARNING L16: UNCALLED SEGMENT, IGNORED FOR OVERLAY PROCESS
    SEGMENT: ?PR?_AD7190_WR8_SERIAL?MAIN

*** WARNING L16: UNCALLED SEGMENT, IGNORED FOR OVERLAY PROCESS
    SEGMENT: ?PR?_AD7190_WR24_SERIAL?MAIN

*** WARNING L16: UNCALLED SEGMENT, IGNORED FOR OVERLAY PROCESS
    SEGMENT: ?PR?AD7190_RD32_SERIAL?MAIN

*** WARNING L16: UNCALLED SEGMENT, IGNORED FOR OVERLAY PROCESS
    SEGMENT: ?PR?AD7190_RD24_SERIAL?MAIN

*** WARNING L16: UNCALLED SEGMENT, IGNORED FOR OVERLAY PROCESS
    SEGMENT: ?PR?UART_INIT?MAIN

*** WARNING L16: UNCALLED SEGMENT, IGNORED FOR OVERLAY PROCESS
    SEGMENT: ?PR?_UART_SENDSTRING?MAIN

*** WARNING L16: UNCALLED SEGMENT, IGNORED FOR OVERLAY PROCESS
    SEGMENT: ?PR?_PROCESS_FRAME?MAIN

*** WARNING L16: UNCALLED SEGMENT, IGNORED FOR OVERLAY PROCESS
    SEGMENT: ?PR?_PROCESS_COMMAND?MAIN

Program Size: data=15.1 xdata=432 code=9863
LINK/LOCATE RUN COMPLETE.  17 WARNING(S),  0 ERROR(S)
